; Function Attrs: mustprogress uwtable
define internal fastcc noundef zeroext i1 @_ZN32pxrInternal_v0_24__pxrReserved__L8_IsCloseINS_10GfMatrix2dEEEbRKNS_7VtArrayIT_EES6_(ptr noundef nonnull align 8 dereferenceable(40) %0, ptr noundef nonnull align 8 dereferenceable(40) %1) unnamed_addr #0 {
  %3 = tail call noundef i64 @_ZNK32pxrInternal_v0_24__pxrReserved__7VtArrayINS_10GfMatrix2dEE4sizeEv(ptr noundef nonnull align 8 dereferenceable(40) %0)
  %4 = tail call noundef i64 @_ZNK32pxrInternal_v0_24__pxrReserved__7VtArrayINS_10GfMatrix2dEE4sizeEv(ptr noundef nonnull align 8 dereferenceable(40) %1)
  %.not = icmp eq i64 %3, %4
  br i1 %.not, label %.preheader, label %_ZN32pxrInternal_v0_24__pxrReserved__L8_IsCloseINS_10GfMatrix2dETnPNSt9enable_ifIXsr12GfIsGfMatrixIT_EE5valueEvE4typeELPv0EEEbRKS3_S9_.exit

.preheader:                                       ; preds = %2
  %5 = tail call noundef i64 @_ZNK32pxrInternal_v0_24__pxrReserved__7VtArrayINS_10GfMatrix2dEE4sizeEv(ptr noundef nonnull align 8 dereferenceable(40) %0)
  %.not12 = icmp eq i64 %5, 0
  br i1 %.not12, label %_ZN32pxrInternal_v0_24__pxrReserved__L8_IsCloseINS_10GfMatrix2dETnPNSt9enable_ifIXsr12GfIsGfMatrixIT_EE5valueEvE4typeELPv0EEEbRKS3_S9_.exit, label %.lr.ph

.lr.ph:                                           ; preds = %.preheader, %19
  %.011 = phi i64 [ %20, %19 ], [ 0, %.preheader ]
  %6 = tail call noundef nonnull align 8 dereferenceable(32) ptr @_ZNK32pxrInternal_v0_24__pxrReserved__7VtArrayINS_10GfMatrix2dEEixEm(ptr noundef nonnull align 8 dereferenceable(40) %0, i64 noundef %.011)
  %7 = tail call noundef nonnull align 8 dereferenceable(32) ptr @_ZNK32pxrInternal_v0_24__pxrReserved__7VtArrayINS_10GfMatrix2dEEixEm(ptr noundef nonnull align 8 dereferenceable(40) %1, i64 noundef %.011)
  br label %.preheader.i

.preheader.i:                                     ; preds = %18, %.lr.ph
  %.not.i = phi i1 [ true, %.lr.ph ], [ false, %18 ]
  %.01016.i = phi i64 [ 0, %.lr.ph ], [ 2, %18 ]
  %8 = getelementptr inbounds nuw double, ptr %6, i64 %.01016.i
  %9 = getelementptr inbounds nuw double, ptr %7, i64 %.01016.i
  br label %11

10:                                               ; preds = %11
  br i1 %12, label %11, label %18, !llvm.loop !15

11:                                               ; preds = %10, %.preheader.i
  %12 = phi i1 [ true, %.preheader.i ], [ false, %10 ]
  %.015.i = phi i64 [ 0, %.preheader.i ], [ 1, %10 ]
  %13 = getelementptr inbounds nuw double, ptr %8, i64 %.015.i
  %14 = getelementptr inbounds nuw double, ptr %9, i64 %.015.i
  %.val.i = load double, ptr %13, align 8
  %.val12.i = load double, ptr %14, align 8
  %15 = fsub double %.val.i, %.val12.i
  %16 = tail call double @llvm.fabs.f64(double %15)
  %17 = fcmp olt double %16, 0x3D719799812DEA11
  br i1 %17, label %10, label %_ZN32pxrInternal_v0_24__pxrReserved__L8_IsCloseINS_10GfMatrix2dETnPNSt9enable_ifIXsr12GfIsGfMatrixIT_EE5valueEvE4typeELPv0EEEbRKS3_S9_.exit

18:                                               ; preds = %10
  br i1 %.not.i, label %.preheader.i, label %19, !llvm.loop !16

19:                                               ; preds = %18
  %20 = add nuw i64 %.011, 1
  %21 = tail call noundef i64 @_ZNK32pxrInternal_v0_24__pxrReserved__7VtArrayINS_10GfMatrix2dEE4sizeEv(ptr noundef nonnull align 8 dereferenceable(40) %0)
  %22 = icmp ult i64 %20, %21
  br i1 %22, label %.lr.ph, label %_ZN32pxrInternal_v0_24__pxrReserved__L8_IsCloseINS_10GfMatrix2dETnPNSt9enable_ifIXsr12GfIsGfMatrixIT_EE5valueEvE4typeELPv0EEEbRKS3_S9_.exit, !llvm.loop !30

_ZN32pxrInternal_v0_24__pxrReserved__L8_IsCloseINS_10GfMatrix2dETnPNSt9enable_ifIXsr12GfIsGfMatrixIT_EE5valueEvE4typeELPv0EEEbRKS3_S9_.exit: ; preds = %19, %11, %.preheader, %2
  %.09 = phi i1 [ false, %2 ], [ true, %.preheader ], [ false, %11 ], [ true, %19 ]
  ret i1 %.09
}